target datalayout = "e-m:e-p270:32:32-p271:32:32-p272:64:64-i64:64-i128:128-f80:128-n8:16:32:64-S128"
target triple = "x86_64-pc-linux-gnu"

%struct.PyVarObject = type { %struct._object, i64 }
%struct._object = type { %union.anon, ptr }
%union.anon = type { i64 }
%struct.PyTupleObject = type { %struct.PyVarObject, [1 x ptr] }

@.str = private unnamed_addr constant [6 x i8] c"range\00", align 1

; Function Attrs: inlinehint nounwind uwtable
define internal i64 @Py_SIZE(ptr noundef %0) #4 {
  %2 = alloca ptr, align 8
  store ptr %0, ptr %2, align 8, !tbaa !18
  %3 = load ptr, ptr %2, align 8, !tbaa !18
  %4 = getelementptr inbounds nuw %struct.PyVarObject, ptr %3, i32 0, i32 1
  %5 = load i64, ptr %4, align 8, !tbaa !50
  ret i64 %5
}

; Function Attrs: inlinehint nounwind uwtable
define internal i64 @PyTuple_GET_SIZE(ptr noundef %0) #4 {
  %2 = alloca ptr, align 8
  %3 = alloca ptr, align 8
  store ptr %0, ptr %2, align 8, !tbaa !18
  call void @llvm.lifetime.start.p0(i64 8, ptr %3) #5
  %4 = load ptr, ptr %2, align 8, !tbaa !18
  store ptr %4, ptr %3, align 8, !tbaa !4
  %5 = load ptr, ptr %3, align 8, !tbaa !4
  %6 = call i64 @Py_SIZE(ptr noundef %5)
  call void @llvm.lifetime.end.p0(i64 8, ptr %3) #5
  ret i64 %6
}

; Function Attrs: nounwind uwtable
define internal ptr @range_new(ptr noundef %0, ptr noundef %1, ptr noundef %2) #0 {
  %4 = alloca ptr, align 8
  %5 = alloca ptr, align 8
  %6 = alloca ptr, align 8
  %7 = alloca ptr, align 8
  store ptr %0, ptr %5, align 8, !tbaa !25
  store ptr %1, ptr %6, align 8, !tbaa !18
  store ptr %2, ptr %7, align 8, !tbaa !18
  %8 = load ptr, ptr %7, align 8, !tbaa !18
  %9 = icmp eq ptr %8, null
  br i1 %9, label %15, label %10

10:                                               ; preds = %3
  %11 = load ptr, ptr %7, align 8, !tbaa !18
  %12 = call i32 @_PyArg_NoKeywords(ptr noundef @.str, ptr noundef %11)
  %13 = icmp ne i32 %12, 0
  br i1 %13, label %15, label %14

14:                                               ; preds = %10
  store ptr null, ptr %4, align 8
  br label %23

15:                                               ; preds = %10, %3
  %16 = load ptr, ptr %5, align 8, !tbaa !25
  %17 = load ptr, ptr %6, align 8, !tbaa !18
  %18 = getelementptr inbounds nuw %struct.PyTupleObject, ptr %17, i32 0, i32 1
  %19 = getelementptr inbounds [1 x ptr], ptr %18, i64 0, i64 0
  %20 = load ptr, ptr %6, align 8, !tbaa !18
  %21 = call i64 @PyTuple_GET_SIZE(ptr noundef %20)
  %22 = call ptr @range_from_array(ptr noundef %16, ptr noundef %19, i64 noundef %21)
  store ptr %22, ptr %4, align 8
  br label %23

23:                                               ; preds = %15, %14
  %24 = load ptr, ptr %4, align 8
  ret ptr %24
}