; Function Attrs: nounwind uwtable
define internal ptr @range_new(ptr noundef %0, ptr noundef readonly captures(none) %1, ptr noundef %2) #0 {
  %4 = icmp eq ptr %2, null
  br i1 %4, label %7, label %5

5:                                                ; preds = %3
  %6 = tail call i32 @_PyArg_NoKeywords(ptr noundef nonnull @.str, ptr noundef nonnull %2) #6
  %.not = icmp eq i32 %6, 0
  br i1 %.not, label %11, label %7

7:                                                ; preds = %5, %3
  %8 = getelementptr inbounds nuw i8, ptr %1, i64 24
  %9 = getelementptr i8, ptr %1, i64 16
  %.val = load i64, ptr %9, align 8, !tbaa !27
  %10 = tail call fastcc ptr @range_from_array(ptr noundef %0, ptr noundef nonnull %8, i64 noundef %.val)
  br label %11

11:                                               ; preds = %5, %7
  %.0 = phi ptr [ %10, %7 ], [ null, %5 ]
  ret ptr %.0
}